target datalayout = "e-m:e-p270:32:32-p271:32:32-p272:64:64-i64:64-i128:128-f80:128-n8:16:32:64-S128"
target triple = "x86_64-pc-linux-gnu"

%class.LIR_Opr = type { i64 }
%class.Instruction = type { ptr, i32, i32, i32, ptr, ptr, ptr, %class.LIR_Opr, i32, ptr, ptr, ptr, ptr }
%class.GrowableArrayBase = type { i32, i32 }
%class.GrowableArrayMetadata = type { i64 }
%class.ValueStack = type <{ ptr, ptr, i32, i32, %class.GrowableArray.0, %class.GrowableArray.0, ptr, i8, [7 x i8] }>
%class.GrowableArray.0 = type { %class.GrowableArrayWithAllocator.1, %class.GrowableArrayMetadata }
%class.GrowableArrayWithAllocator.1 = type { %class.GrowableArrayView.2 }
%class.GrowableArrayView.2 = type { %class.GrowableArrayBase, ptr }

; Function Attrs: mustprogress nounwind uwtable
define linkonce_odr hidden noundef i32 @_ZNK10ValueStack4kindEv(ptr noundef nonnull align 8 dereferenceable(81) %0) #1 comdat align 2 {
  %2 = alloca ptr, align 8
  store ptr %0, ptr %2, align 8
  %3 = load ptr, ptr %2, align 8
  %4 = getelementptr inbounds %class.ValueStack, ptr %3, i32 0, i32 3
  %5 = load i32, ptr %4, align 4
  ret i32 %5
}

; Function Attrs: mustprogress nounwind uwtable
define hidden void @_ZN11Instruction22update_exception_stateEP10ValueStack(ptr noundef nonnull align 8 dereferenceable(96) %0, ptr noundef %1) #1 align 2 {
  %3 = alloca ptr, align 8
  %4 = alloca ptr, align 8
  store ptr %0, ptr %3, align 8
  store ptr %1, ptr %4, align 8
  %5 = load ptr, ptr %3, align 8
  %6 = load ptr, ptr %4, align 8
  %7 = icmp ne ptr %6, null
  br i1 %7, label %8, label %19

8:                                                ; preds = %2
  %9 = load ptr, ptr %4, align 8
  %10 = call noundef i32 @_ZNK10ValueStack4kindEv(ptr noundef nonnull align 8 dereferenceable(81) %9)
  %11 = icmp eq i32 %10, 5
  br i1 %11, label %16, label %12

12:                                               ; preds = %8
  %13 = load ptr, ptr %4, align 8
  %14 = call noundef i32 @_ZNK10ValueStack4kindEv(ptr noundef nonnull align 8 dereferenceable(81) %13)
  %15 = icmp eq i32 %14, 4
  br i1 %15, label %16, label %19

16:                                               ; preds = %12, %8
  %17 = load ptr, ptr %4, align 8
  %18 = getelementptr inbounds %class.Instruction, ptr %5, i32 0, i32 10
  store ptr %17, ptr %18, align 8
  br label %21

19:                                               ; preds = %12, %2
  %20 = getelementptr inbounds %class.Instruction, ptr %5, i32 0, i32 10
  store ptr null, ptr %20, align 8
  br label %21

21:                                               ; preds = %19, %16
  ret void
}