; Function Attrs: mustprogress nofree norecurse nosync nounwind willreturn memory(argmem: readwrite) uwtable
define hidden void @_ZN11Instruction22update_exception_stateEP10ValueStack(ptr nocapture noundef nonnull writeonly align 8 dereferenceable(96) %0, ptr noundef %1) local_unnamed_addr #3 align 2 {
  %.not = icmp eq ptr %1, null
  br i1 %.not, label %7, label %3

3:                                                ; preds = %2
  %4 = getelementptr inbounds i8, ptr %1, i64 20
  %5 = load i32, ptr %4, align 4
  %6 = and i32 %5, -2
  %switch = icmp eq i32 %6, 4
  br i1 %switch, label %8, label %7

7:                                                ; preds = %3, %2
  br label %8

8:                                                ; preds = %3, %7
  %.sink = phi ptr [ null, %7 ], [ %1, %3 ]
  %9 = getelementptr inbounds i8, ptr %0, i64 72
  store ptr %.sink, ptr %9, align 8
  ret void
}